target datalayout = "e-m:e-p270:32:32-p271:32:32-p272:64:64-i64:64-i128:128-f80:128-n8:16:32:64-S128"
target triple = "x86_64-pc-linux-gnu"

%"class.zmq::null_mechanism_t" = type <{ %"class.zmq::zap_client_t.base", i8, i8, i8, i8, i8, i8, [2 x i8], %"class.zmq::mechanism_base_t" }>
%"class.zmq::zap_client_t.base" = type { ptr, %"class.std::__cxx11::basic_string", %"class.std::__cxx11::basic_string" }
%"class.std::__cxx11::basic_string" = type { %"struct.std::__cxx11::basic_string<char>::_Alloc_hider", i64, %union.anon }
%"struct.std::__cxx11::basic_string<char>::_Alloc_hider" = type { ptr }
%union.anon = type { i64, [8 x i8] }
%"class.zmq::mechanism_base_t" = type { %"class.zmq::mechanism_t", ptr }
%"class.zmq::mechanism_t" = type { ptr, %"struct.zmq::options_t", %"class.std::map", %"class.std::map", %"struct.zmq::blob_t", %"struct.zmq::blob_t" }
%"struct.zmq::options_t" = type { i32, i32, i64, i8, [256 x i8], i32, i32, i32, i32, i32, i32, i32, i32, i8, %"struct.zmq::atomic_value_t", i32, i32, i32, i32, i32, i32, i64, i32, i32, i8, i32, i8, i8, i8, i8, i8, %"class.std::__cxx11::basic_string", %"class.std::__cxx11::basic_string", %"class.std::__cxx11::basic_string", i32, i32, i32, i32, %"class.std::vector", %"class.std::set", %"class.std::set", %"class.std::set.6", i32, i32, %"class.std::__cxx11::basic_string", %"class.std::__cxx11::basic_string", %"class.std::__cxx11::basic_string", [32 x i8], [32 x i8], [32 x i8], %"class.std::__cxx11::basic_string", %"class.std::__cxx11::basic_string", i32, i32, i8, i32, i8, i32, i8, i16, i32, i32, i32, %"class.std::__cxx11::basic_string", i8, i8, i8, i32, i32, i8, i32, %"class.std::map", i32, %"class.std::__cxx11::basic_string", %"class.std::__cxx11::basic_string", %"class.std::__cxx11::basic_string", %"class.std::__cxx11::basic_string", i8, %"class.std::vector.17", i8, %"class.std::vector.17", i8, %"class.std::vector.17", i8, i32, i8, i32, i32, i32, i32, i32, i8, i32 }
%"struct.zmq::atomic_value_t" = type { %"struct.std::atomic" }
%"struct.std::atomic" = type { %"struct.std::__atomic_base" }
%"struct.std::__atomic_base" = type { i32 }
%"class.std::vector" = type { %"struct.std::_Vector_base" }
%"struct.std::_Vector_base" = type { %"struct.std::_Vector_base<zmq::tcp_address_mask_t, std::allocator<zmq::tcp_address_mask_t>>::_Vector_impl" }
%"struct.std::_Vector_base<zmq::tcp_address_mask_t, std::allocator<zmq::tcp_address_mask_t>>::_Vector_impl" = type { %"struct.std::_Vector_base<zmq::tcp_address_mask_t, std::allocator<zmq::tcp_address_mask_t>>::_Vector_impl_data" }
%"struct.std::_Vector_base<zmq::tcp_address_mask_t, std::allocator<zmq::tcp_address_mask_t>>::_Vector_impl_data" = type { ptr, ptr, ptr }
%"class.std::set" = type { %"class.std::_Rb_tree" }
%"class.std::_Rb_tree" = type { %"struct.std::_Rb_tree<unsigned int, unsigned int, std::_Identity<unsigned int>, std::less<unsigned int>>::_Rb_tree_impl" }
%"struct.std::_Rb_tree<unsigned int, unsigned int, std::_Identity<unsigned int>, std::less<unsigned int>>::_Rb_tree_impl" = type { [8 x i8], %"struct.std::_Rb_tree_header" }
%"struct.std::_Rb_tree_header" = type { %"struct.std::_Rb_tree_node_base", i64 }
%"struct.std::_Rb_tree_node_base" = type { i32, ptr, ptr, ptr }
%"class.std::set.6" = type { %"class.std::_Rb_tree.7" }
%"class.std::_Rb_tree.7" = type { %"struct.std::_Rb_tree<int, int, std::_Identity<int>, std::less<int>>::_Rb_tree_impl" }
%"struct.std::_Rb_tree<int, int, std::_Identity<int>, std::less<int>>::_Rb_tree_impl" = type { [8 x i8], %"struct.std::_Rb_tree_header" }
%"class.std::vector.17" = type { %"struct.std::_Vector_base.18" }
%"struct.std::_Vector_base.18" = type { %"struct.std::_Vector_base<unsigned char, std::allocator<unsigned char>>::_Vector_impl" }
%"struct.std::_Vector_base<unsigned char, std::allocator<unsigned char>>::_Vector_impl" = type { %"struct.std::_Vector_base<unsigned char, std::allocator<unsigned char>>::_Vector_impl_data" }
%"struct.std::_Vector_base<unsigned char, std::allocator<unsigned char>>::_Vector_impl_data" = type { ptr, ptr, ptr }
%"class.std::map" = type { %"class.std::_Rb_tree.12" }
%"class.std::_Rb_tree.12" = type { %"struct.std::_Rb_tree<std::__cxx11::basic_string<char>, std::pair<const std::__cxx11::basic_string<char>, std::__cxx11::basic_string<char>>, std::_Select1st<std::pair<const std::__cxx11::basic_string<char>, std::__cxx11::basic_string<char>>>, std::less<std::__cxx11::basic_string<char>>>::_Rb_tree_impl" }
%"struct.std::_Rb_tree<std::__cxx11::basic_string<char>, std::pair<const std::__cxx11::basic_string<char>, std::__cxx11::basic_string<char>>, std::_Select1st<std::pair<const std::__cxx11::basic_string<char>, std::__cxx11::basic_string<char>>>, std::less<std::__cxx11::basic_string<char>>>::_Rb_tree_impl" = type { [8 x i8], %"struct.std::_Rb_tree_header" }
%"struct.zmq::blob_t" = type <{ ptr, i64, i8, [7 x i8] }>
%"class.zmq::zap_client_t" = type { ptr, %"class.std::__cxx11::basic_string", %"class.std::__cxx11::basic_string", %"class.zmq::mechanism_base_t" }

@.str = private unnamed_addr constant [4 x i8] c"200\00", align 1
@.str.1 = private unnamed_addr constant [4 x i8] c"300\00", align 1
@stderr = external global ptr, align 8
@.str.2 = private unnamed_addr constant [30 x i8] c"Assertion failed: %s (%s:%d)\0A\00", align 1
@.str.3 = private unnamed_addr constant [8 x i8] c"rc == 0\00", align 1
@.str.4 = private unnamed_addr constant [114 x i8] c"generated/home/dtcxzyw/WorkSpace/Projects/compilers/llvm-opt-benchmark/bench/libzmq/libzmq/src/null_mechanism.cpp\00", align 1
@_ZL18error_command_name = internal constant [7 x i8] c"\05ERROR\00", align 1
@_ZL18ready_command_name = internal constant [7 x i8] c"\05READY\00", align 1
@.str.6 = private unnamed_addr constant [5 x i8] c"NULL\00", align 1

; Function Attrs: mustprogress nounwind uwtable
define available_externally noundef ptr @_ZNKSt7__cxx1112basic_stringIcSt11char_traitsIcESaIcEE7_M_dataEv(ptr noundef nonnull align 8 dereferenceable(32) %0) #3 align 2 {
  %2 = alloca ptr, align 8
  store ptr %0, ptr %2, align 8, !tbaa !12
  %3 = load ptr, ptr %2, align 8
  %4 = getelementptr inbounds nuw %"class.std::__cxx11::basic_string", ptr %3, i32 0, i32 0
  %5 = getelementptr inbounds nuw %"struct.std::__cxx11::basic_string<char>::_Alloc_hider", ptr %4, i32 0, i32 0
  %6 = load ptr, ptr %5, align 8, !tbaa !88
  ret ptr %6
}

; Function Attrs: inlinehint mustprogress nounwind uwtable
define linkonce_odr noundef zeroext i1 @_ZSteqIcSt11char_traitsIcESaIcEEbRKNSt7__cxx1112basic_stringIT_T0_T1_EEPKS5_(ptr noundef nonnull align 8 dereferenceable(32) %0, ptr noundef %1) #4 comdat {
  %3 = alloca ptr, align 8
  %4 = alloca ptr, align 8
  store ptr %0, ptr %3, align 8, !tbaa !12
  store ptr %1, ptr %4, align 8, !tbaa !80
  %5 = load ptr, ptr %3, align 8, !tbaa !12
  %6 = load ptr, ptr %4, align 8, !tbaa !80
  %7 = call noundef i32 @_ZNKSt7__cxx1112basic_stringIcSt11char_traitsIcESaIcEE7compareEPKc(ptr noundef nonnull align 8 dereferenceable(32) %5, ptr noundef %6) #17
  %8 = icmp eq i32 %7, 0
  ret i1 %8
}

; Function Attrs: mustprogress nounwind uwtable
define available_externally noundef ptr @_ZNKSt7__cxx1112basic_stringIcSt11char_traitsIcESaIcEE5c_strEv(ptr noundef nonnull align 8 dereferenceable(32) %0) #3 align 2 {
  %2 = alloca ptr, align 8
  store ptr %0, ptr %2, align 8, !tbaa !12
  %3 = load ptr, ptr %2, align 8
  %4 = call noundef ptr @_ZNKSt7__cxx1112basic_stringIcSt11char_traitsIcESaIcEE7_M_dataEv(ptr noundef nonnull align 8 dereferenceable(32) %3)
  ret ptr %4
}

; Function Attrs: inlinehint mustprogress uwtable
define linkonce_odr noundef zeroext i1 @_ZStneIcSt11char_traitsIcESaIcEEbRKNSt7__cxx1112basic_stringIT_T0_T1_EEPKS5_(ptr noundef nonnull align 8 dereferenceable(32) %0, ptr noundef %1) #9 comdat {
  %3 = alloca ptr, align 8
  %4 = alloca ptr, align 8
  store ptr %0, ptr %3, align 8, !tbaa !12
  store ptr %1, ptr %4, align 8, !tbaa !80
  %5 = load ptr, ptr %3, align 8, !tbaa !12
  %6 = load ptr, ptr %4, align 8, !tbaa !80
  %7 = call noundef zeroext i1 @_ZSteqIcSt11char_traitsIcESaIcEEbRKNSt7__cxx1112basic_stringIT_T0_T1_EEPKS5_(ptr noundef nonnull align 8 dereferenceable(32) %5, ptr noundef %6)
  %8 = xor i1 %7, true
  ret i1 %8
}

; Function Attrs: mustprogress uwtable
define void @_ZN3zmq16null_mechanism_t16send_zap_requestEv(ptr noundef nonnull align 8 dereferenceable(1576) %0) #0 align 2 {
  %2 = alloca ptr, align 8
  store ptr %0, ptr %2, align 8, !tbaa !3
  %3 = load ptr, ptr %2, align 8
  call void @_ZN3zmq12zap_client_t16send_zap_requestEPKcmPPKhPmm(ptr noundef nonnull align 8 dereferenceable(72) %3, ptr noundef @.str.6, i64 noundef 4, ptr noundef null, ptr noundef null, i64 noundef 0)
  ret void
}

; Function Attrs: mustprogress uwtable
define noundef i32 @_ZN3zmq16null_mechanism_t22next_handshake_commandEPNS_5msg_tE(ptr noundef nonnull align 8 dereferenceable(1576) %0, ptr noundef %1) unnamed_addr #0 align 2 {
  %3 = alloca i32, align 4
  %4 = alloca ptr, align 8
  %5 = alloca ptr, align 8
  %6 = alloca i32, align 4
  %7 = alloca i32, align 4
  %8 = alloca i64, align 8
  %9 = alloca i32, align 4
  %10 = alloca ptr, align 8
  store ptr %0, ptr %4, align 8, !tbaa !3
  store ptr %1, ptr %5, align 8, !tbaa !33
  %11 = load ptr, ptr %4, align 8
  %12 = getelementptr inbounds nuw %"class.zmq::null_mechanism_t", ptr %11, i32 0, i32 1
  %13 = load i8, ptr %12, align 8, !tbaa !18, !range !35, !noundef !36
  %14 = trunc i8 %13 to i1
  br i1 %14, label %19, label %15

15:                                               ; preds = %2
  %16 = getelementptr inbounds nuw %"class.zmq::null_mechanism_t", ptr %11, i32 0, i32 2
  %17 = load i8, ptr %16, align 1, !tbaa !26, !range !35, !noundef !36
  %18 = trunc i8 %17 to i1
  br i1 %18, label %19, label %21

19:                                               ; preds = %15, %2
  %20 = call ptr @__errno_location() #19
  store i32 11, ptr %20, align 4, !tbaa !37
  store i32 -1, ptr %3, align 4
  br label %117

21:                                               ; preds = %15
  %22 = getelementptr inbounds i8, ptr %11, i64 80
  %23 = call noundef zeroext i1 @_ZNK3zmq16mechanism_base_t12zap_requiredEv(ptr noundef nonnull align 8 dereferenceable(1496) %22)
  br i1 %23, label %24, label %71

24:                                               ; preds = %21
  %25 = getelementptr inbounds nuw %"class.zmq::null_mechanism_t", ptr %11, i32 0, i32 6
  %26 = load i8, ptr %25, align 1, !tbaa !30, !range !35, !noundef !36
  %27 = trunc i8 %26 to i1
  br i1 %27, label %71, label %28

28:                                               ; preds = %24
  %29 = getelementptr inbounds nuw %"class.zmq::null_mechanism_t", ptr %11, i32 0, i32 5
  %30 = load i8, ptr %29, align 4, !tbaa !29, !range !35, !noundef !36
  %31 = trunc i8 %30 to i1
  br i1 %31, label %32, label %34

32:                                               ; preds = %28
  %33 = call ptr @__errno_location() #19
  store i32 11, ptr %33, align 4, !tbaa !37
  store i32 -1, ptr %3, align 4
  br label %117

34:                                               ; preds = %28
  call void @llvm.lifetime.start.p0(i64 4, ptr %6) #17
  %35 = getelementptr inbounds i8, ptr %11, i64 80
  %36 = getelementptr inbounds nuw %"class.zmq::mechanism_base_t", ptr %35, i32 0, i32 1
  %37 = load ptr, ptr %36, align 8, !tbaa !39
  %38 = call noundef i32 @_ZN3zmq14session_base_t11zap_connectEv(ptr noundef nonnull align 8 dereferenceable(1624) %37)
  store i32 %38, ptr %6, align 4, !tbaa !37
  %39 = load i32, ptr %6, align 4, !tbaa !37
  %40 = icmp eq i32 %39, -1
  br i1 %40, label %41, label %56

41:                                               ; preds = %34
  %42 = getelementptr inbounds i8, ptr %11, i64 80
  %43 = getelementptr inbounds nuw %"class.zmq::mechanism_t", ptr %42, i32 0, i32 1
  %44 = getelementptr inbounds nuw %"struct.zmq::options_t", ptr %43, i32 0, i32 64
  %45 = load i8, ptr %44, align 8, !tbaa !76, !range !35, !noundef !36
  %46 = trunc i8 %45 to i1
  br i1 %46, label %47, label %56

47:                                               ; preds = %41
  %48 = getelementptr inbounds i8, ptr %11, i64 80
  %49 = getelementptr inbounds nuw %"class.zmq::mechanism_base_t", ptr %48, i32 0, i32 1
  %50 = load ptr, ptr %49, align 8, !tbaa !39
  %51 = call noundef ptr @_ZNK3zmq14session_base_t10get_socketEv(ptr noundef nonnull align 8 dereferenceable(1624) %50)
  %52 = getelementptr inbounds i8, ptr %11, i64 80
  %53 = getelementptr inbounds nuw %"class.zmq::mechanism_base_t", ptr %52, i32 0, i32 1
  %54 = load ptr, ptr %53, align 8, !tbaa !39
  %55 = call noundef nonnull align 8 dereferenceable(68) ptr @_ZNK3zmq14session_base_t12get_endpointEv(ptr noundef nonnull align 8 dereferenceable(1624) %54)
  call void @_ZN3zmq13socket_base_t32event_handshake_failed_no_detailERKNS_19endpoint_uri_pair_tEi(ptr noundef nonnull align 8 dereferenceable(1825) %51, ptr noundef nonnull align 8 dereferenceable(68) %55, i32 noundef 14)
  store i32 -1, ptr %3, align 4
  store i32 1, ptr %7, align 4
  br label %68

56:                                               ; preds = %41, %34
  %57 = load i32, ptr %6, align 4, !tbaa !37
  %58 = icmp eq i32 %57, 0
  br i1 %58, label %59, label %67

59:                                               ; preds = %56
  call void @_ZN3zmq16null_mechanism_t16send_zap_requestEv(ptr noundef nonnull align 8 dereferenceable(1576) %11)
  %60 = getelementptr inbounds nuw %"class.zmq::null_mechanism_t", ptr %11, i32 0, i32 5
  store i8 1, ptr %60, align 4, !tbaa !29
  %61 = call noundef i32 @_ZN3zmq12zap_client_t29receive_and_process_zap_replyEv(ptr noundef nonnull align 8 dereferenceable(72) %11)
  store i32 %61, ptr %6, align 4, !tbaa !37
  %62 = load i32, ptr %6, align 4, !tbaa !37
  %63 = icmp ne i32 %62, 0
  br i1 %63, label %64, label %65

64:                                               ; preds = %59
  store i32 -1, ptr %3, align 4
  store i32 1, ptr %7, align 4
  br label %68

65:                                               ; preds = %59
  %66 = getelementptr inbounds nuw %"class.zmq::null_mechanism_t", ptr %11, i32 0, i32 6
  store i8 1, ptr %66, align 1, !tbaa !30
  br label %67

67:                                               ; preds = %65, %56
  store i32 0, ptr %7, align 4
  br label %68

68:                                               ; preds = %67, %64, %47
  call void @llvm.lifetime.end.p0(i64 4, ptr %6) #17
  %69 = load i32, ptr %7, align 4
  switch i32 %69, label %119 [
    i32 0, label %70
    i32 1, label %117
  ]

70:                                               ; preds = %68
  br label %71

71:                                               ; preds = %70, %24, %21
  %72 = getelementptr inbounds nuw %"class.zmq::null_mechanism_t", ptr %11, i32 0, i32 6
  %73 = load i8, ptr %72, align 1, !tbaa !30, !range !35, !noundef !36
  %74 = trunc i8 %73 to i1
  br i1 %74, label %75, label %113

75:                                               ; preds = %71
  %76 = getelementptr inbounds nuw %"class.zmq::zap_client_t", ptr %11, i32 0, i32 2
  %77 = call noundef zeroext i1 @_ZStneIcSt11char_traitsIcESaIcEEbRKNSt7__cxx1112basic_stringIT_T0_T1_EEPKS5_(ptr noundef nonnull align 8 dereferenceable(32) %76, ptr noundef @.str)
  br i1 %77, label %78, label %113

78:                                               ; preds = %75
  %79 = getelementptr inbounds nuw %"class.zmq::null_mechanism_t", ptr %11, i32 0, i32 2
  store i8 1, ptr %79, align 1, !tbaa !26
  %80 = getelementptr inbounds nuw %"class.zmq::zap_client_t", ptr %11, i32 0, i32 2
  %81 = call noundef zeroext i1 @_ZStneIcSt11char_traitsIcESaIcEEbRKNSt7__cxx1112basic_stringIT_T0_T1_EEPKS5_(ptr noundef nonnull align 8 dereferenceable(32) %80, ptr noundef @.str.1)
  br i1 %81, label %82, label %111

82:                                               ; preds = %78
  call void @llvm.lifetime.start.p0(i64 8, ptr %8) #17
  store i64 3, ptr %8, align 8, !tbaa !77
  call void @llvm.lifetime.start.p0(i64 4, ptr %9) #17
  %83 = load ptr, ptr %5, align 8, !tbaa !33
  %84 = call noundef i32 @_ZN3zmq5msg_t9init_sizeEm(ptr noundef nonnull align 8 dereferenceable(64) %83, i64 noundef 10)
  store i32 %84, ptr %9, align 4, !tbaa !37
  br label %85

85:                                               ; preds = %82
  %86 = load i32, ptr %9, align 4, !tbaa !37
  %87 = icmp eq i32 %86, 0
  %88 = xor i1 %87, true
  %89 = zext i1 %88 to i64
  %90 = call i64 @llvm.expect.i64(i64 %89, i64 0)
  %91 = icmp ne i64 %90, 0
  br i1 %91, label %92, label %97

92:                                               ; preds = %85
  %93 = load ptr, ptr @stderr, align 8, !tbaa !78
  %94 = call i32 (ptr, ptr, ...) @fprintf(ptr noundef %93, ptr noundef @.str.2, ptr noundef @.str.3, ptr noundef @.str.4, i32 noundef 81) #17
  %95 = load ptr, ptr @stderr, align 8, !tbaa !78
  %96 = call i32 @fflush(ptr noundef %95)
  call void @_ZN3zmq9zmq_abortEPKc(ptr noundef @.str.3)
  br label %97

97:                                               ; preds = %92, %85
  br label %98

98:                                               ; preds = %97
  br label %99

99:                                               ; preds = %98
  call void @llvm.lifetime.start.p0(i64 8, ptr %10) #17
  %100 = load ptr, ptr %5, align 8, !tbaa !33
  %101 = call noundef ptr @_ZN3zmq5msg_t4dataEv(ptr noundef nonnull align 8 dereferenceable(64) %100)
  store ptr %101, ptr %10, align 8, !tbaa !80
  %102 = load ptr, ptr %10, align 8, !tbaa !80
  call void @llvm.memcpy.p0.p0.i64(ptr align 1 %102, ptr align 1 @_ZL18error_command_name, i64 6, i1 false)
  %103 = load ptr, ptr %10, align 8, !tbaa !80
  %104 = getelementptr inbounds nuw i8, ptr %103, i64 6
  store ptr %104, ptr %10, align 8, !tbaa !80
  %105 = load ptr, ptr %10, align 8, !tbaa !80
  store i8 3, ptr %105, align 1, !tbaa !81
  %106 = load ptr, ptr %10, align 8, !tbaa !80
  %107 = getelementptr inbounds nuw i8, ptr %106, i64 1
  store ptr %107, ptr %10, align 8, !tbaa !80
  %108 = load ptr, ptr %10, align 8, !tbaa !80
  %109 = getelementptr inbounds nuw %"class.zmq::zap_client_t", ptr %11, i32 0, i32 2
  %110 = call noundef ptr @_ZNKSt7__cxx1112basic_stringIcSt11char_traitsIcESaIcEE5c_strEv(ptr noundef nonnull align 8 dereferenceable(32) %109) #17
  call void @llvm.memcpy.p0.p0.i64(ptr align 1 %108, ptr align 1 %110, i64 3, i1 false)
  store i32 0, ptr %3, align 4
  store i32 1, ptr %7, align 4
  call void @llvm.lifetime.end.p0(i64 8, ptr %10) #17
  call void @llvm.lifetime.end.p0(i64 4, ptr %9) #17
  call void @llvm.lifetime.end.p0(i64 8, ptr %8) #17
  br label %117

111:                                              ; preds = %78
  %112 = call ptr @__errno_location() #19
  store i32 11, ptr %112, align 4, !tbaa !37
  store i32 -1, ptr %3, align 4
  br label %117

113:                                              ; preds = %75, %71
  %114 = getelementptr inbounds i8, ptr %11, i64 80
  %115 = load ptr, ptr %5, align 8, !tbaa !33
  call void @_ZNK3zmq11mechanism_t34make_command_with_basic_propertiesEPNS_5msg_tEPKcm(ptr noundef nonnull align 8 dereferenceable(1488) %114, ptr noundef %115, ptr noundef @_ZL18ready_command_name, i64 noundef 6)
  %116 = getelementptr inbounds nuw %"class.zmq::null_mechanism_t", ptr %11, i32 0, i32 1
  store i8 1, ptr %116, align 8, !tbaa !18
  store i32 0, ptr %3, align 4
  br label %117

117:                                              ; preds = %113, %111, %99, %68, %32, %19
  %118 = load i32, ptr %3, align 4
  ret i32 %118

119:                                              ; preds = %68
  unreachable
}