; Function Attrs: mustprogress uwtable
define noundef range(i32 -1, 1) i32 @_ZN3zmq16null_mechanism_t22next_handshake_commandEPNS_5msg_tE(ptr noundef nonnull align 8 dereferenceable(1576) %0, ptr noundef %1) unnamed_addr #0 align 2 {
  %3 = getelementptr inbounds nuw i8, ptr %0, i64 72
  %4 = load i8, ptr %3, align 8, !tbaa !14, !range !18, !noundef !19
  %5 = trunc nuw i8 %4 to i1
  br i1 %5, label %10, label %6

6:                                                ; preds = %2
  %7 = getelementptr inbounds nuw i8, ptr %0, i64 73
  %8 = load i8, ptr %7, align 1, !tbaa !20, !range !18, !noundef !19
  %9 = trunc nuw i8 %8 to i1
  br i1 %9, label %10, label %12

10:                                               ; preds = %6, %2
  %11 = tail call ptr @__errno_location() #20
  store i32 11, ptr %11, align 4, !tbaa !21
  br label %64

12:                                               ; preds = %6
  %13 = getelementptr inbounds nuw i8, ptr %0, i64 80
  %14 = tail call noundef zeroext i1 @_ZNK3zmq16mechanism_base_t12zap_requiredEv(ptr noundef nonnull align 8 dereferenceable(1496) %13)
  br i1 %14, label %15, label %.thread

15:                                               ; preds = %12
  %16 = getelementptr inbounds nuw i8, ptr %0, i64 77
  %17 = load i8, ptr %16, align 1, !tbaa !23, !range !18, !noundef !19
  %18 = trunc nuw i8 %17 to i1
  br i1 %18, label %.thread, label %19

19:                                               ; preds = %15
  %20 = getelementptr inbounds nuw i8, ptr %0, i64 76
  %21 = load i8, ptr %20, align 4, !tbaa !24, !range !18, !noundef !19
  %22 = trunc nuw i8 %21 to i1
  br i1 %22, label %23, label %25

23:                                               ; preds = %19
  %24 = tail call ptr @__errno_location() #20
  store i32 11, ptr %24, align 4, !tbaa !21
  br label %64

25:                                               ; preds = %19
  %26 = getelementptr inbounds nuw i8, ptr %0, i64 1568
  %27 = load ptr, ptr %26, align 8, !tbaa !25
  %28 = tail call noundef i32 @_ZN3zmq14session_base_t11zap_connectEv(ptr noundef nonnull align 8 dereferenceable(1624) %27)
  switch i32 %28, label %.thread [
    i32 -1, label %29
    i32 0, label %38
  ]

29:                                               ; preds = %25
  %30 = getelementptr inbounds nuw i8, ptr %0, i64 1080
  %31 = load i8, ptr %30, align 8, !tbaa !63, !range !18, !noundef !19
  %32 = trunc nuw i8 %31 to i1
  br i1 %32, label %33, label %.thread

33:                                               ; preds = %29
  %34 = load ptr, ptr %26, align 8, !tbaa !25
  %35 = tail call noundef ptr @_ZNK3zmq14session_base_t10get_socketEv(ptr noundef nonnull align 8 dereferenceable(1624) %34)
  %36 = load ptr, ptr %26, align 8, !tbaa !25
  %37 = tail call noundef nonnull align 8 dereferenceable(68) ptr @_ZNK3zmq14session_base_t12get_endpointEv(ptr noundef nonnull align 8 dereferenceable(1624) %36)
  tail call void @_ZN3zmq13socket_base_t32event_handshake_failed_no_detailERKNS_19endpoint_uri_pair_tEi(ptr noundef nonnull align 8 dereferenceable(1825) %35, ptr noundef nonnull align 8 dereferenceable(68) %37, i32 noundef 14)
  br label %64

38:                                               ; preds = %25
  tail call void @_ZN3zmq12zap_client_t16send_zap_requestEPKcmPPKhPmm(ptr noundef nonnull align 8 dereferenceable(1576) %0, ptr noundef nonnull @.str.6, i64 noundef 4, ptr noundef null, ptr noundef null, i64 noundef 0)
  store i8 1, ptr %20, align 4, !tbaa !24
  %39 = tail call noundef i32 @_ZN3zmq12zap_client_t29receive_and_process_zap_replyEv(ptr noundef nonnull align 8 dereferenceable(72) %0)
  %.not = icmp eq i32 %39, 0
  br i1 %.not, label %40, label %64

40:                                               ; preds = %38
  store i8 1, ptr %16, align 1, !tbaa !23
  br label %.thread

.thread:                                          ; preds = %29, %40, %25, %15, %12
  %41 = getelementptr inbounds nuw i8, ptr %0, i64 77
  %42 = load i8, ptr %41, align 1, !tbaa !23, !range !18, !noundef !19
  %43 = trunc nuw i8 %42 to i1
  br i1 %43, label %44, label %63

44:                                               ; preds = %.thread
  %45 = getelementptr inbounds nuw i8, ptr %0, i64 40
  %46 = tail call noundef i32 @_ZNKSt7__cxx1112basic_stringIcSt11char_traitsIcESaIcEE7compareEPKc(ptr noundef nonnull align 8 dereferenceable(32) %45, ptr noundef nonnull @.str) #18
  %.not18 = icmp eq i32 %46, 0
  br i1 %.not18, label %63, label %47

47:                                               ; preds = %44
  store i8 1, ptr %7, align 1, !tbaa !20
  %48 = tail call noundef i32 @_ZNKSt7__cxx1112basic_stringIcSt11char_traitsIcESaIcEE7compareEPKc(ptr noundef nonnull align 8 dereferenceable(32) %45, ptr noundef nonnull @.str.1) #18
  %.not19 = icmp eq i32 %48, 0
  br i1 %.not19, label %61, label %49

49:                                               ; preds = %47
  %50 = tail call noundef i32 @_ZN3zmq5msg_t9init_sizeEm(ptr noundef nonnull align 8 dereferenceable(64) %1, i64 noundef 10)
  %.not15 = icmp eq i32 %50, 0
  br i1 %.not15, label %56, label %51, !prof !64

51:                                               ; preds = %49
  %52 = load ptr, ptr @stderr, align 8, !tbaa !65
  %53 = tail call i32 (ptr, ptr, ...) @fprintf(ptr noundef %52, ptr noundef nonnull @.str.2, ptr noundef nonnull @.str.3, ptr noundef nonnull @.str.4, i32 noundef 81) #21
  %54 = load ptr, ptr @stderr, align 8, !tbaa !65
  %55 = tail call i32 @fflush(ptr noundef %54)
  tail call void @_ZN3zmq9zmq_abortEPKc(ptr noundef nonnull @.str.3)
  br label %56

56:                                               ; preds = %51, %49
  %57 = tail call noundef ptr @_ZN3zmq5msg_t4dataEv(ptr noundef nonnull align 8 dereferenceable(64) %1)
  tail call void @llvm.memcpy.p0.p0.i64(ptr noundef nonnull align 1 dereferenceable(6) %57, ptr noundef nonnull align 1 dereferenceable(6) @_ZL18error_command_name, i64 6, i1 false)
  %58 = getelementptr inbounds nuw i8, ptr %57, i64 6
  store i8 3, ptr %58, align 1, !tbaa !67
  %59 = getelementptr inbounds nuw i8, ptr %57, i64 7
  %60 = load ptr, ptr %45, align 8, !tbaa !6
  tail call void @llvm.memcpy.p0.p0.i64(ptr noundef nonnull align 1 dereferenceable(3) %59, ptr noundef nonnull align 1 dereferenceable(3) %60, i64 3, i1 false)
  br label %64

61:                                               ; preds = %47
  %62 = tail call ptr @__errno_location() #20
  store i32 11, ptr %62, align 4, !tbaa !21
  br label %64

63:                                               ; preds = %44, %.thread
  tail call void @_ZNK3zmq11mechanism_t34make_command_with_basic_propertiesEPNS_5msg_tEPKcm(ptr noundef nonnull align 8 dereferenceable(1488) %13, ptr noundef %1, ptr noundef nonnull @_ZL18ready_command_name, i64 noundef 6)
  store i8 1, ptr %3, align 8, !tbaa !14
  br label %64

64:                                               ; preds = %33, %38, %63, %61, %56, %23, %10
  %.0 = phi i32 [ -1, %10 ], [ 0, %56 ], [ -1, %61 ], [ 0, %63 ], [ -1, %23 ], [ -1, %38 ], [ -1, %33 ]
  ret i32 %.0
}